target datalayout = "e-m:e-p270:32:32-p271:32:32-p272:64:64-i64:64-i128:128-f80:128-n8:16:32:64-S128"
target triple = "x86_64-pc-linux-gnu"

%"class.std::__cxx11::basic_string" = type { %"struct.std::__cxx11::basic_string<char>::_Alloc_hider", i64, %union.anon }
%"struct.std::__cxx11::basic_string<char>::_Alloc_hider" = type { ptr }
%union.anon = type { i64, [8 x i8] }
%"class.rocksdb::InternalKeyComparator" = type { %"class.rocksdb::CompareInterface", %"class.rocksdb::UserComparatorWrapper" }
%"class.rocksdb::CompareInterface" = type { ptr }
%"class.rocksdb::UserComparatorWrapper" = type { ptr }
%"struct.rocksdb::ImmutableMemTableOptions" = type <{ i64, i32, [4 x i8], i64, i8, i8, [6 x i8], i64, ptr, i64, i8, [7 x i8], ptr, ptr, ptr, i32, i8, i8, [2 x i8] }>
%"struct.rocksdb::MutableCFOptions" = type { i64, i32, i64, double, i8, i64, i64, i8, i64, %"class.std::shared_ptr", double, i8, %"class.std::shared_ptr.3", i64, i64, i32, i32, i32, i64, i64, i32, i64, double, i64, i64, %"class.std::vector.6", %"struct.rocksdb::CompactionOptionsFIFO", %"class.rocksdb::CompactionOptionsUniversal", i64, i64, i8, i64, i64, i8, i8, double, double, i64, i32, i8, i64, i8, i8, i8, i8, [4 x i8], %"struct.rocksdb::CompressionOptions", %"struct.rocksdb::CompressionOptions", i8, i8, i32, i8, i8, i64, %"class.std::vector.16", i32, i32, i32, %"class.std::vector.21" }
%"class.std::shared_ptr" = type { %"class.std::__shared_ptr" }
%"class.std::__shared_ptr" = type { ptr, %"class.std::__shared_count" }
%"class.std::__shared_count" = type { ptr }
%"class.std::shared_ptr.3" = type { %"class.std::__shared_ptr.4" }
%"class.std::__shared_ptr.4" = type { ptr, %"class.std::__shared_count" }
%"class.std::vector.6" = type { %"struct.std::_Vector_base.7" }
%"struct.std::_Vector_base.7" = type { %"struct.std::_Vector_base<int, std::allocator<int>>::_Vector_impl" }
%"struct.std::_Vector_base<int, std::allocator<int>>::_Vector_impl" = type { %"struct.std::_Vector_base<int, std::allocator<int>>::_Vector_impl_data" }
%"struct.std::_Vector_base<int, std::allocator<int>>::_Vector_impl_data" = type { ptr, ptr, ptr }
%"struct.rocksdb::CompactionOptionsFIFO" = type { i64, i8, i64, %"class.std::vector.11" }
%"class.std::vector.11" = type { %"struct.std::_Vector_base.12" }
%"struct.std::_Vector_base.12" = type { %"struct.std::_Vector_base<rocksdb::FileTemperatureAge, std::allocator<rocksdb::FileTemperatureAge>>::_Vector_impl" }
%"struct.std::_Vector_base<rocksdb::FileTemperatureAge, std::allocator<rocksdb::FileTemperatureAge>>::_Vector_impl" = type { %"struct.std::_Vector_base<rocksdb::FileTemperatureAge, std::allocator<rocksdb::FileTemperatureAge>>::_Vector_impl_data" }
%"struct.std::_Vector_base<rocksdb::FileTemperatureAge, std::allocator<rocksdb::FileTemperatureAge>>::_Vector_impl_data" = type { ptr, ptr, ptr }
%"class.rocksdb::CompactionOptionsUniversal" = type <{ i32, i32, i32, i32, i32, i32, i32, i8, i8, [2 x i8] }>
%"struct.rocksdb::CompressionOptions" = type <{ i32, i32, i32, i32, i32, i32, i8, [7 x i8], i64, i8, [3 x i8], i32, i8, [7 x i8] }>
%"class.std::vector.16" = type { %"struct.std::_Vector_base.17" }
%"struct.std::_Vector_base.17" = type { %"struct.std::_Vector_base<rocksdb::CompressionType, std::allocator<rocksdb::CompressionType>>::_Vector_impl" }
%"struct.std::_Vector_base<rocksdb::CompressionType, std::allocator<rocksdb::CompressionType>>::_Vector_impl" = type { %"struct.std::_Vector_base<rocksdb::CompressionType, std::allocator<rocksdb::CompressionType>>::_Vector_impl_data" }
%"struct.std::_Vector_base<rocksdb::CompressionType, std::allocator<rocksdb::CompressionType>>::_Vector_impl_data" = type { ptr, ptr, ptr }
%"class.std::vector.21" = type { %"struct.std::_Vector_base.22" }
%"struct.std::_Vector_base.22" = type { %"struct.std::_Vector_base<unsigned long, std::allocator<unsigned long>>::_Vector_impl" }
%"struct.std::_Vector_base<unsigned long, std::allocator<unsigned long>>::_Vector_impl" = type { %"struct.std::_Vector_base<unsigned long, std::allocator<unsigned long>>::_Vector_impl_data" }
%"struct.std::_Vector_base<unsigned long, std::allocator<unsigned long>>::_Vector_impl_data" = type { ptr, ptr, ptr }
%"struct.rocksdb::ImmutableCFOptions" = type <{ i8, i8, [6 x i8], ptr, %"class.rocksdb::InternalKeyComparator", %"class.std::shared_ptr.63", ptr, %"class.std::shared_ptr.66", i32, i32, i64, i8, [7 x i8], ptr, %"class.std::shared_ptr.69", %"class.std::vector.72", i32, i8, [3 x i8], i32, i8, i8, i8, i8, %"class.std::shared_ptr", %"class.std::vector.38", %"class.std::shared_ptr.77", %"class.std::shared_ptr.80", %"class.std::shared_ptr.51", i8, [7 x i8] }>
%"class.std::shared_ptr.63" = type { %"class.std::__shared_ptr.64" }
%"class.std::__shared_ptr.64" = type { ptr, %"class.std::__shared_count" }
%"class.std::shared_ptr.66" = type { %"class.std::__shared_ptr.67" }
%"class.std::__shared_ptr.67" = type { ptr, %"class.std::__shared_count" }
%"class.std::shared_ptr.69" = type { %"class.std::__shared_ptr.70" }
%"class.std::__shared_ptr.70" = type { ptr, %"class.std::__shared_count" }
%"class.std::vector.72" = type { %"struct.std::_Vector_base.73" }
%"struct.std::_Vector_base.73" = type { %"struct.std::_Vector_base<std::shared_ptr<rocksdb::TablePropertiesCollectorFactory>, std::allocator<std::shared_ptr<rocksdb::TablePropertiesCollectorFactory>>>::_Vector_impl" }
%"struct.std::_Vector_base<std::shared_ptr<rocksdb::TablePropertiesCollectorFactory>, std::allocator<std::shared_ptr<rocksdb::TablePropertiesCollectorFactory>>>::_Vector_impl" = type { %"struct.std::_Vector_base<std::shared_ptr<rocksdb::TablePropertiesCollectorFactory>, std::allocator<std::shared_ptr<rocksdb::TablePropertiesCollectorFactory>>>::_Vector_impl_data" }
%"struct.std::_Vector_base<std::shared_ptr<rocksdb::TablePropertiesCollectorFactory>, std::allocator<std::shared_ptr<rocksdb::TablePropertiesCollectorFactory>>>::_Vector_impl_data" = type { ptr, ptr, ptr }
%"class.std::vector.38" = type { %"struct.std::_Vector_base.39" }
%"struct.std::_Vector_base.39" = type { %"struct.std::_Vector_base<rocksdb::DbPath, std::allocator<rocksdb::DbPath>>::_Vector_impl" }
%"struct.std::_Vector_base<rocksdb::DbPath, std::allocator<rocksdb::DbPath>>::_Vector_impl" = type { %"struct.std::_Vector_base<rocksdb::DbPath, std::allocator<rocksdb::DbPath>>::_Vector_impl_data" }
%"struct.std::_Vector_base<rocksdb::DbPath, std::allocator<rocksdb::DbPath>>::_Vector_impl_data" = type { ptr, ptr, ptr }
%"class.std::shared_ptr.77" = type { %"class.std::__shared_ptr.78" }
%"class.std::__shared_ptr.78" = type { ptr, %"class.std::__shared_count" }
%"class.std::shared_ptr.80" = type { %"class.std::__shared_ptr.81" }
%"class.std::__shared_ptr.81" = type { ptr, %"class.std::__shared_count" }
%"class.std::shared_ptr.51" = type { %"class.std::__shared_ptr.52" }
%"class.std::__shared_ptr.52" = type { ptr, %"class.std::__shared_count" }
%"struct.rocksdb::ImmutableDBOptions" = type { i8, i8, i8, i8, i8, i8, i8, i8, i8, ptr, %"class.std::shared_ptr.26", %"class.std::shared_ptr.29", %"class.std::shared_ptr.32", i8, i32, %"class.std::shared_ptr.35", i8, %"class.std::vector.38", %"class.std::__cxx11::basic_string", %"class.std::__cxx11::basic_string", i64, i64, i64, i64, i64, i32, i64, i64, i64, i64, i8, i8, i8, i8, i8, i8, i8, i64, %"class.std::shared_ptr.43", i8, %"class.std::vector.46", i8, i8, i8, i8, i8, i64, i64, i8, i8, i8, i8, %"class.std::shared_ptr.51", ptr, i8, i8, i8, i8, i8, i8, i8, i8, i8, i8, i8, i8, i8, i8, i64, %"class.std::shared_ptr.54", i8, i32, i64, i8, %"class.std::__cxx11::basic_string", %"class.rocksdb::SmallEnumSet", i8, %"class.std::shared_ptr.57", i8, i64, i64, i64, i8, i8, %"class.std::shared_ptr.60", ptr, ptr, ptr }
%"class.std::shared_ptr.26" = type { %"class.std::__shared_ptr.27" }
%"class.std::__shared_ptr.27" = type { ptr, %"class.std::__shared_count" }
%"class.std::shared_ptr.29" = type { %"class.std::__shared_ptr.30" }
%"class.std::__shared_ptr.30" = type { ptr, %"class.std::__shared_count" }
%"class.std::shared_ptr.32" = type { %"class.std::__shared_ptr.33" }
%"class.std::__shared_ptr.33" = type { ptr, %"class.std::__shared_count" }
%"class.std::shared_ptr.35" = type { %"class.std::__shared_ptr.36" }
%"class.std::__shared_ptr.36" = type { ptr, %"class.std::__shared_count" }
%"class.std::shared_ptr.43" = type { %"class.std::__shared_ptr.44" }
%"class.std::__shared_ptr.44" = type { ptr, %"class.std::__shared_count" }
%"class.std::vector.46" = type { %"struct.std::_Vector_base.47" }
%"struct.std::_Vector_base.47" = type { %"struct.std::_Vector_base<std::shared_ptr<rocksdb::EventListener>, std::allocator<std::shared_ptr<rocksdb::EventListener>>>::_Vector_impl" }
%"struct.std::_Vector_base<std::shared_ptr<rocksdb::EventListener>, std::allocator<std::shared_ptr<rocksdb::EventListener>>>::_Vector_impl" = type { %"struct.std::_Vector_base<std::shared_ptr<rocksdb::EventListener>, std::allocator<std::shared_ptr<rocksdb::EventListener>>>::_Vector_impl_data" }
%"struct.std::_Vector_base<std::shared_ptr<rocksdb::EventListener>, std::allocator<std::shared_ptr<rocksdb::EventListener>>>::_Vector_impl_data" = type { ptr, ptr, ptr }
%"class.std::shared_ptr.54" = type { %"class.std::__shared_ptr.55" }
%"class.std::__shared_ptr.55" = type { ptr, %"class.std::__shared_count" }
%"class.rocksdb::SmallEnumSet" = type { i64 }
%"class.std::shared_ptr.57" = type { %"class.std::__shared_ptr.58" }
%"class.std::__shared_ptr.58" = type { ptr, %"class.std::__shared_count" }
%"class.std::shared_ptr.60" = type { %"class.std::__shared_ptr.61" }
%"class.std::__shared_ptr.61" = type { ptr, %"class.std::__shared_count" }

; Function Attrs: mustprogress nounwind uwtable
define linkonce_odr noundef ptr @_ZNKSt12__shared_ptrIN7rocksdb13MergeOperatorELN9__gnu_cxx12_Lock_policyE2EE3getEv(ptr noundef nonnull align 8 dereferenceable(16) %0) #5 comdat align 2 {
  %2 = alloca ptr, align 8
  store ptr %0, ptr %2, align 8, !tbaa !213
  %3 = load ptr, ptr %2, align 8
  %4 = getelementptr inbounds nuw %"class.std::__shared_ptr.64", ptr %3, i32 0, i32 0
  %5 = load ptr, ptr %4, align 8, !tbaa !215
  ret ptr %5
}

; Function Attrs: mustprogress nounwind uwtable
define void @_ZN7rocksdb24ImmutableMemTableOptionsC2ERKNS_16ImmutableOptionsERKNS_16MutableCFOptionsE(ptr noundef nonnull align 8 dereferenceable(94) %0, ptr noundef nonnull align 8 dereferenceable(849) %1, ptr noundef nonnull align 8 dereferenceable(608) %2) unnamed_addr #5 align 2 {
  %4 = alloca ptr, align 8
  %5 = alloca ptr, align 8
  %6 = alloca ptr, align 8
  store ptr %0, ptr %4, align 8, !tbaa !66
  store ptr %1, ptr %5, align 8, !tbaa !68
  store ptr %2, ptr %6, align 8, !tbaa !70
  %7 = load ptr, ptr %4, align 8
  %8 = getelementptr inbounds nuw %"struct.rocksdb::ImmutableMemTableOptions", ptr %7, i32 0, i32 0
  %9 = load ptr, ptr %6, align 8, !tbaa !70
  %10 = getelementptr inbounds nuw %"struct.rocksdb::MutableCFOptions", ptr %9, i32 0, i32 2
  %11 = load i64, ptr %10, align 8, !tbaa !72
  store i64 %11, ptr %8, align 8, !tbaa !110
  %12 = getelementptr inbounds nuw %"struct.rocksdb::ImmutableMemTableOptions", ptr %7, i32 0, i32 1
  %13 = load ptr, ptr %6, align 8, !tbaa !70
  %14 = getelementptr inbounds nuw %"struct.rocksdb::MutableCFOptions", ptr %13, i32 0, i32 0
  %15 = load i64, ptr %14, align 8, !tbaa !115
  %16 = uitofp i64 %15 to double
  %17 = load ptr, ptr %6, align 8, !tbaa !70
  %18 = getelementptr inbounds nuw %"struct.rocksdb::MutableCFOptions", ptr %17, i32 0, i32 3
  %19 = load double, ptr %18, align 8, !tbaa !116
  %20 = fmul double %16, %19
  %21 = fptoui double %20 to i32
  %22 = mul i32 %21, 8
  store i32 %22, ptr %12, align 8, !tbaa !117
  %23 = getelementptr inbounds nuw %"struct.rocksdb::ImmutableMemTableOptions", ptr %7, i32 0, i32 3
  %24 = load ptr, ptr %6, align 8, !tbaa !70
  %25 = getelementptr inbounds nuw %"struct.rocksdb::MutableCFOptions", ptr %24, i32 0, i32 5
  %26 = load i64, ptr %25, align 8, !tbaa !118
  store i64 %26, ptr %23, align 8, !tbaa !119
  %27 = getelementptr inbounds nuw %"struct.rocksdb::ImmutableMemTableOptions", ptr %7, i32 0, i32 4
  %28 = load ptr, ptr %6, align 8, !tbaa !70
  %29 = getelementptr inbounds nuw %"struct.rocksdb::MutableCFOptions", ptr %28, i32 0, i32 4
  %30 = load i8, ptr %29, align 8, !tbaa !120, !range !121, !noundef !122
  %31 = trunc i8 %30 to i1
  %32 = zext i1 %31 to i8
  store i8 %32, ptr %27, align 8, !tbaa !123
  %33 = getelementptr inbounds nuw %"struct.rocksdb::ImmutableMemTableOptions", ptr %7, i32 0, i32 5
  %34 = load ptr, ptr %5, align 8, !tbaa !68
  %35 = getelementptr inbounds i8, ptr %34, i64 600
  %36 = getelementptr inbounds nuw %"struct.rocksdb::ImmutableCFOptions", ptr %35, i32 0, i32 11
  %37 = load i8, ptr %36, align 8, !tbaa !124, !range !121, !noundef !122
  %38 = trunc i8 %37 to i1
  %39 = zext i1 %38 to i8
  store i8 %39, ptr %33, align 1, !tbaa !158
  %40 = getelementptr inbounds nuw %"struct.rocksdb::ImmutableMemTableOptions", ptr %7, i32 0, i32 7
  %41 = load ptr, ptr %6, align 8, !tbaa !70
  %42 = getelementptr inbounds nuw %"struct.rocksdb::MutableCFOptions", ptr %41, i32 0, i32 8
  %43 = load i64, ptr %42, align 8, !tbaa !159
  store i64 %43, ptr %40, align 8, !tbaa !160
  %44 = getelementptr inbounds nuw %"struct.rocksdb::ImmutableMemTableOptions", ptr %7, i32 0, i32 8
  %45 = load ptr, ptr %5, align 8, !tbaa !68
  %46 = getelementptr inbounds i8, ptr %45, i64 600
  %47 = getelementptr inbounds nuw %"struct.rocksdb::ImmutableCFOptions", ptr %46, i32 0, i32 13
  %48 = load ptr, ptr %47, align 8, !tbaa !161
  store ptr %48, ptr %44, align 8, !tbaa !162
  %49 = getelementptr inbounds nuw %"struct.rocksdb::ImmutableMemTableOptions", ptr %7, i32 0, i32 9
  %50 = load ptr, ptr %6, align 8, !tbaa !70
  %51 = getelementptr inbounds nuw %"struct.rocksdb::MutableCFOptions", ptr %50, i32 0, i32 6
  %52 = load i64, ptr %51, align 8, !tbaa !163
  store i64 %52, ptr %49, align 8, !tbaa !164
  %53 = getelementptr inbounds nuw %"struct.rocksdb::ImmutableMemTableOptions", ptr %7, i32 0, i32 10
  %54 = load ptr, ptr %6, align 8, !tbaa !70
  %55 = getelementptr inbounds nuw %"struct.rocksdb::MutableCFOptions", ptr %54, i32 0, i32 7
  %56 = load i8, ptr %55, align 8, !tbaa !165, !range !121, !noundef !122
  %57 = trunc i8 %56 to i1
  %58 = zext i1 %57 to i8
  store i8 %58, ptr %53, align 8, !tbaa !166
  %59 = getelementptr inbounds nuw %"struct.rocksdb::ImmutableMemTableOptions", ptr %7, i32 0, i32 12
  %60 = load ptr, ptr %5, align 8, !tbaa !68
  %61 = getelementptr inbounds nuw %"struct.rocksdb::ImmutableDBOptions", ptr %60, i32 0, i32 86
  %62 = load ptr, ptr %61, align 8, !tbaa !167
  store ptr %62, ptr %59, align 8, !tbaa !203
  %63 = getelementptr inbounds nuw %"struct.rocksdb::ImmutableMemTableOptions", ptr %7, i32 0, i32 13
  %64 = load ptr, ptr %5, align 8, !tbaa !68
  %65 = getelementptr inbounds i8, ptr %64, i64 600
  %66 = getelementptr inbounds nuw %"struct.rocksdb::ImmutableCFOptions", ptr %65, i32 0, i32 5
  %67 = call noundef ptr @_ZNKSt12__shared_ptrIN7rocksdb13MergeOperatorELN9__gnu_cxx12_Lock_policyE2EE3getEv(ptr noundef nonnull align 8 dereferenceable(16) %66) #6
  store ptr %67, ptr %63, align 8, !tbaa !204
  %68 = getelementptr inbounds nuw %"struct.rocksdb::ImmutableMemTableOptions", ptr %7, i32 0, i32 14
  %69 = load ptr, ptr %5, align 8, !tbaa !68
  %70 = getelementptr inbounds nuw %"struct.rocksdb::ImmutableDBOptions", ptr %69, i32 0, i32 87
  %71 = load ptr, ptr %70, align 8, !tbaa !205
  store ptr %71, ptr %68, align 8, !tbaa !206
  %72 = getelementptr inbounds nuw %"struct.rocksdb::ImmutableMemTableOptions", ptr %7, i32 0, i32 15
  %73 = load ptr, ptr %6, align 8, !tbaa !70
  %74 = getelementptr inbounds nuw %"struct.rocksdb::MutableCFOptions", ptr %73, i32 0, i32 50
  %75 = load i32, ptr %74, align 4, !tbaa !207
  store i32 %75, ptr %72, align 8, !tbaa !208
  %76 = getelementptr inbounds nuw %"struct.rocksdb::ImmutableMemTableOptions", ptr %7, i32 0, i32 16
  %77 = load ptr, ptr %5, align 8, !tbaa !68
  %78 = getelementptr inbounds nuw %"struct.rocksdb::ImmutableDBOptions", ptr %77, i32 0, i32 73
  %79 = load i8, ptr %78, align 8, !tbaa !209, !range !121, !noundef !122
  %80 = trunc i8 %79 to i1
  %81 = zext i1 %80 to i8
  store i8 %81, ptr %76, align 4, !tbaa !210
  %82 = getelementptr inbounds nuw %"struct.rocksdb::ImmutableMemTableOptions", ptr %7, i32 0, i32 17
  %83 = load ptr, ptr %6, align 8, !tbaa !70
  %84 = getelementptr inbounds nuw %"struct.rocksdb::MutableCFOptions", ptr %83, i32 0, i32 52
  %85 = load i8, ptr %84, align 1, !tbaa !211, !range !121, !noundef !122
  %86 = trunc i8 %85 to i1
  %87 = zext i1 %86 to i8
  store i8 %87, ptr %82, align 1, !tbaa !212
  ret void
}