; Function Attrs: mustprogress nofree norecurse nosync nounwind willreturn memory(argmem: readwrite) uwtable
define void @_ZN7rocksdb24ImmutableMemTableOptionsC2ERKNS_16ImmutableOptionsERKNS_16MutableCFOptionsE(ptr noundef nonnull writeonly align 8 captures(none) dereferenceable(94) initializes((0, 12), (16, 26), (32, 57), (64, 94)) %0, ptr noundef nonnull readonly align 8 captures(none) dereferenceable(849) %1, ptr noundef nonnull readonly align 8 captures(none) dereferenceable(608) %2) unnamed_addr #6 align 2 {
  %4 = getelementptr inbounds nuw i8, ptr %2, i64 16
  %5 = load i64, ptr %4, align 8, !tbaa !32
  store i64 %5, ptr %0, align 8, !tbaa !71
  %6 = getelementptr inbounds nuw i8, ptr %0, i64 8
  %7 = load i64, ptr %2, align 8, !tbaa !76
  %8 = uitofp i64 %7 to double
  %9 = getelementptr inbounds nuw i8, ptr %2, i64 24
  %10 = load double, ptr %9, align 8, !tbaa !77
  %11 = fmul double %10, %8
  %12 = fptoui double %11 to i32
  %13 = shl i32 %12, 3
  store i32 %13, ptr %6, align 8, !tbaa !78
  %14 = getelementptr inbounds nuw i8, ptr %0, i64 16
  %15 = getelementptr inbounds nuw i8, ptr %2, i64 40
  %16 = load i64, ptr %15, align 8, !tbaa !79
  store i64 %16, ptr %14, align 8, !tbaa !80
  %17 = getelementptr inbounds nuw i8, ptr %0, i64 24
  %18 = getelementptr inbounds nuw i8, ptr %2, i64 32
  %19 = load i8, ptr %18, align 8, !tbaa !81, !range !82, !noundef !83
  store i8 %19, ptr %17, align 8, !tbaa !84
  %20 = getelementptr inbounds nuw i8, ptr %0, i64 25
  %21 = getelementptr inbounds nuw i8, ptr %1, i64 688
  %22 = load i8, ptr %21, align 8, !tbaa !85, !range !82, !noundef !83
  store i8 %22, ptr %20, align 1, !tbaa !119
  %23 = getelementptr inbounds nuw i8, ptr %0, i64 32
  %24 = getelementptr inbounds nuw i8, ptr %2, i64 64
  %25 = load i64, ptr %24, align 8, !tbaa !120
  store i64 %25, ptr %23, align 8, !tbaa !121
  %26 = getelementptr inbounds nuw i8, ptr %0, i64 40
  %27 = getelementptr inbounds nuw i8, ptr %1, i64 696
  %28 = load ptr, ptr %27, align 8, !tbaa !122
  store ptr %28, ptr %26, align 8, !tbaa !123
  %29 = getelementptr inbounds nuw i8, ptr %0, i64 48
  %30 = getelementptr inbounds nuw i8, ptr %2, i64 48
  %31 = load i64, ptr %30, align 8, !tbaa !124
  store i64 %31, ptr %29, align 8, !tbaa !125
  %32 = getelementptr inbounds nuw i8, ptr %0, i64 56
  %33 = getelementptr inbounds nuw i8, ptr %2, i64 56
  %34 = load i8, ptr %33, align 8, !tbaa !126, !range !82, !noundef !83
  store i8 %34, ptr %32, align 8, !tbaa !127
  %35 = getelementptr inbounds nuw i8, ptr %0, i64 64
  %36 = getelementptr inbounds nuw i8, ptr %1, i64 584
  %37 = load ptr, ptr %36, align 8, !tbaa !128
  store ptr %37, ptr %35, align 8, !tbaa !164
  %38 = getelementptr inbounds nuw i8, ptr %0, i64 72
  %39 = getelementptr inbounds nuw i8, ptr %1, i64 632
  %40 = load ptr, ptr %39, align 8, !tbaa !165
  store ptr %40, ptr %38, align 8, !tbaa !166
  %41 = getelementptr inbounds nuw i8, ptr %0, i64 80
  %42 = getelementptr inbounds nuw i8, ptr %1, i64 592
  %43 = load ptr, ptr %42, align 8, !tbaa !167
  store ptr %43, ptr %41, align 8, !tbaa !168
  %44 = getelementptr inbounds nuw i8, ptr %0, i64 88
  %45 = getelementptr inbounds nuw i8, ptr %2, i64 524
  %46 = load i32, ptr %45, align 4, !tbaa !169
  store i32 %46, ptr %44, align 8, !tbaa !170
  %47 = getelementptr inbounds nuw i8, ptr %0, i64 92
  %48 = getelementptr inbounds nuw i8, ptr %1, i64 448
  %49 = load i8, ptr %48, align 8, !tbaa !171, !range !82, !noundef !83
  store i8 %49, ptr %47, align 4, !tbaa !172
  %50 = getelementptr inbounds nuw i8, ptr %0, i64 93
  %51 = getelementptr inbounds nuw i8, ptr %2, i64 529
  %52 = load i8, ptr %51, align 1, !tbaa !173, !range !82, !noundef !83
  store i8 %52, ptr %50, align 1, !tbaa !174
  ret void
}